; ModuleID = 'source-C-CXX/52/210.c'
source_filename = "source-C-CXX/52/210.c"
target datalayout = "e-m:e-p270:32:32-p271:32:32-p272:64:64-i64:64-f80:128-n8:16:32:64-S128"
target triple = "x86_64-pc-linux-gnu"

@.str = private unnamed_addr constant [3 x i8] c"%d\00", align 1

; Function Attrs: nofree nounwind sspstrong uwtable
define dso_local i32 @main() local_unnamed_addr #0 {
  %1 = alloca [300 x i32], align 16
  %2 = alloca [300 x i32], align 16
  %3 = alloca i32, align 4
  %4 = bitcast [300 x i32]* %1 to i8*
  call void @llvm.lifetime.start.p0i8(i64 1200, i8* nonnull %4) #4
  %5 = bitcast [300 x i32]* %2 to i8*
  call void @llvm.lifetime.start.p0i8(i64 1200, i8* nonnull %5) #4
  %6 = bitcast i32* %3 to i8*
  call void @llvm.lifetime.start.p0i8(i64 4, i8* nonnull %6) #4
  %7 = call i32 (i8*, ...) @__isoc99_scanf(i8* getelementptr inbounds ([3 x i8], [3 x i8]* @.str, i64 0, i64 0), i32* nonnull %3)
  %8 = load i32, i32* %3, align 4, !tbaa !5
  %9 = icmp sgt i32 %8, 0
  br i1 %9, label %16, label %52

10:                                               ; preds = %35
  %11 = icmp sgt i32 %36, 0
  br i1 %11, label %12, label %52

12:                                               ; preds = %10
  %13 = add nsw i32 %36, -1
  %14 = zext i32 %13 to i64
  %15 = zext i32 %36 to i64
  br label %41

16:                                               ; preds = %0, %35
  %17 = phi i64 [ %37, %35 ], [ 0, %0 ]
  %18 = phi i32 [ %36, %35 ], [ 0, %0 ]
  %19 = getelementptr inbounds [300 x i32], [300 x i32]* %1, i64 0, i64 %17
  %20 = call i32 (i8*, ...) @__isoc99_scanf(i8* getelementptr inbounds ([3 x i8], [3 x i8]* @.str, i64 0, i64 0), i32* nonnull %19)
  %21 = icmp eq i64 %17, 0
  %22 = load i32, i32* %19, align 4, !tbaa !5
  br i1 %21, label %31, label %25

23:                                               ; preds = %25
  %24 = icmp eq i64 %30, %17
  br i1 %24, label %31, label %25, !llvm.loop !9

25:                                               ; preds = %16, %23
  %26 = phi i64 [ %30, %23 ], [ 0, %16 ]
  %27 = getelementptr inbounds [300 x i32], [300 x i32]* %2, i64 0, i64 %26
  %28 = load i32, i32* %27, align 4, !tbaa !5
  %29 = icmp eq i32 %22, %28
  %30 = add nuw nsw i64 %26, 1
  br i1 %29, label %35, label %23

31:                                               ; preds = %23, %16
  %32 = sext i32 %18 to i64
  %33 = getelementptr inbounds [300 x i32], [300 x i32]* %2, i64 0, i64 %32
  store i32 %22, i32* %33, align 4, !tbaa !5
  %34 = add nsw i32 %18, 1
  br label %35

35:                                               ; preds = %25, %31
  %36 = phi i32 [ %34, %31 ], [ %18, %25 ]
  %37 = add nuw nsw i64 %17, 1
  %38 = load i32, i32* %3, align 4, !tbaa !5
  %39 = sext i32 %38 to i64
  %40 = icmp slt i64 %37, %39
  br i1 %40, label %16, label %10, !llvm.loop !11

41:                                               ; preds = %12, %49
  %42 = phi i64 [ 0, %12 ], [ %50, %49 ]
  %43 = getelementptr inbounds [300 x i32], [300 x i32]* %2, i64 0, i64 %42
  %44 = load i32, i32* %43, align 4, !tbaa !5
  %45 = call i32 (i8*, ...) @printf(i8* nonnull dereferenceable(1) getelementptr inbounds ([3 x i8], [3 x i8]* @.str, i64 0, i64 0), i32 %44)
  %46 = icmp ult i64 %42, %14
  br i1 %46, label %47, label %49

47:                                               ; preds = %41
  %48 = call i32 @putchar(i32 44)
  br label %49

49:                                               ; preds = %41, %47
  %50 = add nuw nsw i64 %42, 1
  %51 = icmp eq i64 %50, %15
  br i1 %51, label %52, label %41, !llvm.loop !12

52:                                               ; preds = %49, %0, %10
  %53 = call i32 @putchar(i32 10)
  call void @llvm.lifetime.end.p0i8(i64 4, i8* nonnull %6) #4
  call void @llvm.lifetime.end.p0i8(i64 1200, i8* nonnull %5) #4
  call void @llvm.lifetime.end.p0i8(i64 1200, i8* nonnull %4) #4
  ret i32 0
}

; Function Attrs: argmemonly mustprogress nofree nosync nounwind willreturn
declare void @llvm.lifetime.start.p0i8(i64 immarg, i8* nocapture) #1

; Function Attrs: nofree nounwind
declare noundef i32 @__isoc99_scanf(i8* nocapture noundef readonly, ...) local_unnamed_addr #2

; Function Attrs: nofree nounwind
declare noundef i32 @printf(i8* nocapture noundef readonly, ...) local_unnamed_addr #2

; Function Attrs: argmemonly mustprogress nofree nosync nounwind willreturn
declare void @llvm.lifetime.end.p0i8(i64 immarg, i8* nocapture) #1

; Function Attrs: nofree nounwind
declare noundef i32 @putchar(i32 noundef) local_unnamed_addr #3


!llvm.module.flags = !{!0, !1, !2, !3}
!llvm.ident = !{!4}

!0 = !{i32 1, !"wchar_size", i32 4}
!1 = !{i32 7, !"PIC Level", i32 2}
!2 = !{i32 7, !"PIE Level", i32 2}
!3 = !{i32 7, !"uwtable", i32 1}
!4 = !{!"clang version 13.0.0"}
!5 = !{!6, !6, i64 0}
!6 = !{!"int", !7, i64 0}
!7 = !{!"omnipotent char", !8, i64 0}
!8 = !{!"Simple C/C++ TBAA"}
!9 = distinct !{!9, !10}
!10 = !{!"llvm.loop.mustprogress"}
!11 = distinct !{!11, !10}
!12 = distinct !{!12, !10}
